target datalayout = "e-m:e-p270:32:32-p271:32:32-p272:64:64-i64:64-i128:128-f80:128-n8:16:32:64-S128"
target triple = "x86_64-pc-linux-gnu"

%class.LIR_Opr = type { i64 }
%class.LinearScan = type { ptr, ptr, ptr, ptr, %class.BlockList, i32, i8, i32, i32, i32, %class.GrowableArray.0, ptr, ptr, i8, %class.GrowableArray.3, %class.GrowableArray, %class.ResourceBitMap, %class.ResourceBitMap, %class.BitMap2D, %class.GrowableArray.6 }
%class.BlockList = type { %class.GrowableArray }
%class.GrowableArray.0 = type { %class.GrowableArrayWithAllocator.1, %class.GrowableArrayMetadata }
%class.GrowableArrayWithAllocator.1 = type { %class.GrowableArrayView.2 }
%class.GrowableArrayView.2 = type { %class.GrowableArrayBase, ptr }
%class.GrowableArrayBase = type { i32, i32 }
%class.GrowableArrayMetadata = type { i64 }
%class.GrowableArray.3 = type { %class.GrowableArrayWithAllocator.4, %class.GrowableArrayMetadata }
%class.GrowableArrayWithAllocator.4 = type { %class.GrowableArrayView.5 }
%class.GrowableArrayView.5 = type { %class.GrowableArrayBase, ptr }
%class.GrowableArray = type { %class.GrowableArrayWithAllocator, %class.GrowableArrayMetadata }
%class.GrowableArrayWithAllocator = type { %class.GrowableArrayView }
%class.GrowableArrayView = type { %class.GrowableArrayBase, ptr }
%class.ResourceBitMap = type { %class.GrowableBitMap }
%class.GrowableBitMap = type { %class.BitMap }
%class.BitMap = type { ptr, i64 }
%class.BitMap2D = type { %class.ResourceBitMap, i64 }
%class.GrowableArray.6 = type { %class.GrowableArrayWithAllocator.7, %class.GrowableArrayMetadata }
%class.GrowableArrayWithAllocator.7 = type { %class.GrowableArrayView.8 }
%class.GrowableArrayView.8 = type { %class.GrowableArrayBase, ptr }
%class.GrowableArray.15 = type { %class.GrowableArrayWithAllocator.16, %class.GrowableArrayMetadata }
%class.GrowableArrayWithAllocator.16 = type { %class.GrowableArrayView.17 }
%class.GrowableArrayView.17 = type { %class.GrowableArrayBase, ptr }
%class.GrowableArray.21 = type { %class.GrowableArrayWithAllocator.22, %class.GrowableArrayMetadata }
%class.GrowableArrayWithAllocator.22 = type { %class.GrowableArrayView.23 }
%class.GrowableArrayView.23 = type { %class.GrowableArrayBase, ptr }
%class.BlockBegin = type { %class.StateSplit, i32, i32, i32, i32, i32, i32, i32, i32, i32, %class.ResourceBitMap, %class.BlockList, %class.BlockList, ptr, ptr, %class.BlockList, ptr, i32, [4 x i8], %class.Label, ptr, %class.ResourceBitMap, %class.ResourceBitMap, %class.ResourceBitMap, %class.ResourceBitMap, %class.ResourceBitMap, ptr, i32, i32 }
%class.StateSplit = type { %class.Instruction, ptr }
%class.Instruction = type { ptr, i32, i32, i32, ptr, ptr, ptr, %class.LIR_Opr, i32, ptr, ptr, ptr, ptr }
%class.Label = type <{ i32, [4 x i32], i32, ptr, i8, [7 x i8] }>
%class.LIR_InsertionBuffer = type { ptr, %class.GrowableArray.21, %class.GrowableArray.3 }
%class.LIR_List = type { %class.GrowableArray.3, ptr }
%class.LIR_Op = type { ptr, %class.LIR_Opr, i16, i16, ptr, i32, i32, ptr }
%class.LinearScanWalker = type { %class.IntervalWalker, i32, i32, i32, i8, [56 x i32], [56 x i32], [56 x ptr], %class.MoveResolver }
%class.IntervalWalker = type { ptr, ptr, ptr, [2 x ptr], [2 x ptr], [2 x ptr], ptr, i32, i32 }
%class.MoveResolver = type <{ ptr, ptr, i32, [4 x i8], %class.LIR_InsertionBuffer, %class.GrowableArray.0, %class.GrowableArray.15, %class.GrowableArray.0, i8, [3 x i8], [56 x i32], [4 x i8] }>

; Function Attrs: mustprogress nounwind uwtable
define linkonce_odr hidden void @_ZN17GrowableArrayBase5clearEv(ptr noundef nonnull align 4 dereferenceable(8) %0) #1 comdat align 2 {
  %2 = alloca ptr, align 8
  store ptr %0, ptr %2, align 8
  %3 = load ptr, ptr %2, align 8
  %4 = getelementptr inbounds %class.GrowableArrayBase, ptr %3, i32 0, i32 0
  store i32 0, ptr %4, align 4
  ret void
}

; Function Attrs: mustprogress nounwind uwtable
define linkonce_odr hidden void @_ZN19LIR_InsertionBuffer4initEP8LIR_List(ptr noundef nonnull align 8 dereferenceable(56) %0, ptr noundef %1) #1 comdat align 2 {
  %3 = alloca ptr, align 8
  %4 = alloca ptr, align 8
  store ptr %0, ptr %3, align 8
  store ptr %1, ptr %4, align 8
  %5 = load ptr, ptr %3, align 8
  %6 = load ptr, ptr %4, align 8
  %7 = getelementptr inbounds %class.LIR_InsertionBuffer, ptr %5, i32 0, i32 0
  store ptr %6, ptr %7, align 8
  %8 = getelementptr inbounds %class.LIR_InsertionBuffer, ptr %5, i32 0, i32 1
  call void @_ZN17GrowableArrayBase5clearEv(ptr noundef nonnull align 4 dereferenceable(8) %8)
  %9 = getelementptr inbounds %class.LIR_InsertionBuffer, ptr %5, i32 0, i32 2
  call void @_ZN17GrowableArrayBase5clearEv(ptr noundef nonnull align 4 dereferenceable(8) %9)
  ret void
}

; Function Attrs: mustprogress nounwind uwtable
define linkonce_odr hidden noundef ptr @_ZNK19LIR_InsertionBuffer8lir_listEv(ptr noundef nonnull align 8 dereferenceable(56) %0) #1 comdat align 2 {
  %2 = alloca ptr, align 8
  store ptr %0, ptr %2, align 8
  %3 = load ptr, ptr %2, align 8
  %4 = getelementptr inbounds %class.LIR_InsertionBuffer, ptr %3, i32 0, i32 0
  %5 = load ptr, ptr %4, align 8
  ret ptr %5
}

; Function Attrs: mustprogress nounwind uwtable
define linkonce_odr hidden noundef zeroext i1 @_ZNK19LIR_InsertionBuffer11initializedEv(ptr noundef nonnull align 8 dereferenceable(56) %0) #1 comdat align 2 {
  %2 = alloca ptr, align 8
  store ptr %0, ptr %2, align 8
  %3 = load ptr, ptr %2, align 8
  %4 = getelementptr inbounds %class.LIR_InsertionBuffer, ptr %3, i32 0, i32 0
  %5 = load ptr, ptr %4, align 8
  %6 = icmp ne ptr %5, null
  ret i1 %6
}

; Function Attrs: mustprogress nounwind uwtable
define hidden void @_ZN12MoveResolver23create_insertion_bufferEP8LIR_List(ptr noundef nonnull align 8 dereferenceable(380) %0, ptr noundef %1) #1 align 2 {
  %3 = alloca ptr, align 8
  %4 = alloca ptr, align 8
  store ptr %0, ptr %3, align 8
  store ptr %1, ptr %4, align 8
  %5 = load ptr, ptr %3, align 8
  %6 = getelementptr inbounds %class.MoveResolver, ptr %5, i32 0, i32 4
  %7 = load ptr, ptr %4, align 8
  call void @_ZN19LIR_InsertionBuffer4initEP8LIR_List(ptr noundef nonnull align 8 dereferenceable(56) %6, ptr noundef %7)
  ret void
}

; Function Attrs: mustprogress nounwind uwtable
define hidden void @_ZN12MoveResolver23append_insertion_bufferEv(ptr noundef nonnull align 8 dereferenceable(380) %0) #1 align 2 {
  %2 = alloca ptr, align 8
  store ptr %0, ptr %2, align 8
  %3 = load ptr, ptr %2, align 8
  %4 = getelementptr inbounds %class.MoveResolver, ptr %3, i32 0, i32 4
  %5 = call noundef zeroext i1 @_ZNK19LIR_InsertionBuffer11initializedEv(ptr noundef nonnull align 8 dereferenceable(56) %4)
  br i1 %5, label %6, label %10

6:                                                ; preds = %1
  %7 = getelementptr inbounds %class.MoveResolver, ptr %3, i32 0, i32 4
  %8 = call noundef ptr @_ZNK19LIR_InsertionBuffer8lir_listEv(ptr noundef nonnull align 8 dereferenceable(56) %7)
  %9 = getelementptr inbounds %class.MoveResolver, ptr %3, i32 0, i32 4
  call void @_ZN8LIR_List6appendEP19LIR_InsertionBuffer(ptr noundef nonnull align 8 dereferenceable(32) %8, ptr noundef %9)
  br label %10

10:                                               ; preds = %6, %1
  %11 = getelementptr inbounds %class.MoveResolver, ptr %3, i32 0, i32 1
  store ptr null, ptr %11, align 8
  %12 = getelementptr inbounds %class.MoveResolver, ptr %3, i32 0, i32 2
  store i32 -1, ptr %12, align 8
  ret void
}

; Function Attrs: mustprogress nounwind uwtable
define linkonce_odr hidden noundef nonnull align 8 dereferenceable(8) ptr @_ZNK17GrowableArrayViewIP10BlockBeginE2atEi(ptr noundef nonnull align 8 dereferenceable(16) %0, i32 noundef %1) #1 comdat align 2 {
  %3 = alloca ptr, align 8
  %4 = alloca i32, align 4
  store ptr %0, ptr %3, align 8
  store i32 %1, ptr %4, align 4
  %5 = load ptr, ptr %3, align 8
  %6 = getelementptr inbounds %class.GrowableArrayView, ptr %5, i32 0, i32 1
  %7 = load ptr, ptr %6, align 8
  %8 = load i32, ptr %4, align 4
  %9 = sext i32 %8 to i64
  %10 = getelementptr inbounds ptr, ptr %7, i64 %9
  ret ptr %10
}

; Function Attrs: mustprogress nounwind uwtable
define hidden void @_ZN12MoveResolver20move_insert_positionEP8LIR_Listi(ptr noundef nonnull align 8 dereferenceable(380) %0, ptr noundef %1, i32 noundef %2) #1 align 2 {
  %4 = alloca ptr, align 8
  %5 = alloca ptr, align 8
  %6 = alloca i32, align 4
  store ptr %0, ptr %4, align 8
  store ptr %1, ptr %5, align 8
  store i32 %2, ptr %6, align 4
  %7 = load ptr, ptr %4, align 8
  %8 = getelementptr inbounds %class.MoveResolver, ptr %7, i32 0, i32 1
  %9 = load ptr, ptr %8, align 8
  %10 = icmp ne ptr %9, null
  br i1 %10, label %11, label %22

11:                                               ; preds = %3
  %12 = load ptr, ptr %5, align 8
  %13 = getelementptr inbounds %class.MoveResolver, ptr %7, i32 0, i32 1
  %14 = load ptr, ptr %13, align 8
  %15 = icmp ne ptr %12, %14
  br i1 %15, label %21, label %16

16:                                               ; preds = %11
  %17 = load i32, ptr %6, align 4
  %18 = getelementptr inbounds %class.MoveResolver, ptr %7, i32 0, i32 2
  %19 = load i32, ptr %18, align 8
  %20 = icmp ne i32 %17, %19
  br i1 %20, label %21, label %22

21:                                               ; preds = %16, %11
  call void @_ZN12MoveResolver16resolve_mappingsEv(ptr noundef nonnull align 8 dereferenceable(380) %7)
  br label %22

22:                                               ; preds = %21, %16, %3
  %23 = load ptr, ptr %5, align 8
  %24 = getelementptr inbounds %class.MoveResolver, ptr %7, i32 0, i32 1
  %25 = load ptr, ptr %24, align 8
  %26 = icmp ne ptr %23, %25
  br i1 %26, label %27, label %29

27:                                               ; preds = %22
  call void @_ZN12MoveResolver23append_insertion_bufferEv(ptr noundef nonnull align 8 dereferenceable(380) %7)
  %28 = load ptr, ptr %5, align 8
  call void @_ZN12MoveResolver23create_insertion_bufferEP8LIR_List(ptr noundef nonnull align 8 dereferenceable(380) %7, ptr noundef %28)
  br label %29

29:                                               ; preds = %27, %22
  %30 = load ptr, ptr %5, align 8
  %31 = getelementptr inbounds %class.MoveResolver, ptr %7, i32 0, i32 1
  store ptr %30, ptr %31, align 8
  %32 = load i32, ptr %6, align 4
  %33 = getelementptr inbounds %class.MoveResolver, ptr %7, i32 0, i32 2
  store i32 %32, ptr %33, align 8
  ret void
}

; Function Attrs: mustprogress nounwind uwtable
define linkonce_odr hidden noundef i32 @_ZNK6LIR_Op2idEv(ptr noundef nonnull align 8 dereferenceable(48) %0) #1 comdat align 2 {
  %2 = alloca ptr, align 8
  store ptr %0, ptr %2, align 8
  %3 = load ptr, ptr %2, align 8
  %4 = getelementptr inbounds %class.LIR_Op, ptr %3, i32 0, i32 5
  %5 = load i32, ptr %4, align 8
  ret i32 %5
}

; Function Attrs: mustprogress nounwind uwtable
define linkonce_odr hidden noundef nonnull align 8 dereferenceable(8) ptr @_ZN17GrowableArrayViewIP6LIR_OpE2atEi(ptr noundef nonnull align 8 dereferenceable(16) %0, i32 noundef %1) #1 comdat align 2 {
  %3 = alloca ptr, align 8
  %4 = alloca i32, align 4
  store ptr %0, ptr %3, align 8
  store i32 %1, ptr %4, align 4
  %5 = load ptr, ptr %3, align 8
  %6 = getelementptr inbounds %class.GrowableArrayView.5, ptr %5, i32 0, i32 1
  %7 = load ptr, ptr %6, align 8
  %8 = load i32, ptr %4, align 4
  %9 = sext i32 %8 to i64
  %10 = getelementptr inbounds ptr, ptr %7, i64 %9
  ret ptr %10
}

; Function Attrs: mustprogress nounwind uwtable
define linkonce_odr hidden noundef ptr @_ZN8LIR_List17instructions_listEv(ptr noundef nonnull align 8 dereferenceable(32) %0) #1 comdat align 2 {
  %2 = alloca ptr, align 8
  store ptr %0, ptr %2, align 8
  %3 = load ptr, ptr %2, align 8
  %4 = getelementptr inbounds %class.LIR_List, ptr %3, i32 0, i32 0
  ret ptr %4
}

; Function Attrs: mustprogress nounwind uwtable
define linkonce_odr hidden noundef ptr @_ZNK10BlockBegin3lirEv(ptr noundef nonnull align 8 dereferenceable(408) %0) #1 comdat align 2 {
  %2 = alloca ptr, align 8
  store ptr %0, ptr %2, align 8
  %3 = load ptr, ptr %2, align 8
  %4 = getelementptr inbounds %class.BlockBegin, ptr %3, i32 0, i32 20
  %5 = load ptr, ptr %4, align 8
  ret ptr %5
}

; Function Attrs: mustprogress nounwind uwtable
define linkonce_odr hidden noundef ptr @_ZNK10LinearScan19block_of_op_with_idEi(ptr noundef nonnull align 8 dereferenceable(256) %0, i32 noundef %1) #1 comdat align 2 {
  %3 = alloca ptr, align 8
  %4 = alloca i32, align 4
  store ptr %0, ptr %3, align 8
  store i32 %1, ptr %4, align 4
  %5 = load ptr, ptr %3, align 8
  %6 = getelementptr inbounds %class.LinearScan, ptr %5, i32 0, i32 15
  %7 = load i32, ptr %4, align 4
  %8 = ashr i32 %7, 1
  %9 = call noundef nonnull align 8 dereferenceable(8) ptr @_ZNK17GrowableArrayViewIP10BlockBeginE2atEi(ptr noundef nonnull align 8 dereferenceable(16) %6, i32 noundef %8)
  %10 = load ptr, ptr %9, align 8
  ret ptr %10
}

; Function Attrs: mustprogress nounwind uwtable
define linkonce_odr hidden noundef ptr @_ZNK14IntervalWalker9allocatorEv(ptr noundef nonnull align 8 dereferenceable(88) %0) #1 comdat align 2 {
  %2 = alloca ptr, align 8
  store ptr %0, ptr %2, align 8
  %3 = load ptr, ptr %2, align 8
  %4 = getelementptr inbounds %class.IntervalWalker, ptr %3, i32 0, i32 2
  %5 = load ptr, ptr %4, align 8
  ret ptr %5
}

; Function Attrs: mustprogress nounwind uwtable
define hidden void @_ZN16LinearScanWalker11insert_moveEiP8IntervalS1_(ptr noundef nonnull align 8 dereferenceable(1384) %0, i32 noundef %1, ptr noundef %2, ptr noundef %3) #1 align 2 {
  %5 = alloca ptr, align 8
  %6 = alloca i32, align 4
  %7 = alloca ptr, align 8
  %8 = alloca ptr, align 8
  %9 = alloca ptr, align 8
  %10 = alloca ptr, align 8
  %11 = alloca i32, align 4
  store ptr %0, ptr %5, align 8
  store i32 %1, ptr %6, align 4
  store ptr %2, ptr %7, align 8
  store ptr %3, ptr %8, align 8
  %12 = load ptr, ptr %5, align 8
  %13 = load i32, ptr %6, align 4
  %14 = add nsw i32 %13, 1
  %15 = and i32 %14, -2
  store i32 %15, ptr %6, align 4
  %16 = call noundef ptr @_ZNK14IntervalWalker9allocatorEv(ptr noundef nonnull align 8 dereferenceable(88) %12)
  %17 = load i32, ptr %6, align 4
  %18 = call noundef ptr @_ZNK10LinearScan19block_of_op_with_idEi(ptr noundef nonnull align 8 dereferenceable(256) %16, i32 noundef %17)
  store ptr %18, ptr %9, align 8
  %19 = load ptr, ptr %9, align 8
  %20 = call noundef ptr @_ZNK10BlockBegin3lirEv(ptr noundef nonnull align 8 dereferenceable(408) %19)
  %21 = call noundef ptr @_ZN8LIR_List17instructions_listEv(ptr noundef nonnull align 8 dereferenceable(32) %20)
  store ptr %21, ptr %10, align 8
  %22 = load i32, ptr %6, align 4
  %23 = load ptr, ptr %10, align 8
  %24 = call noundef nonnull align 8 dereferenceable(8) ptr @_ZN17GrowableArrayViewIP6LIR_OpE2atEi(ptr noundef nonnull align 8 dereferenceable(16) %23, i32 noundef 0)
  %25 = load ptr, ptr %24, align 8
  %26 = call noundef i32 @_ZNK6LIR_Op2idEv(ptr noundef nonnull align 8 dereferenceable(48) %25)
  %27 = sub nsw i32 %22, %26
  %28 = sdiv i32 %27, 2
  store i32 %28, ptr %11, align 4
  br label %29

29:                                               ; preds = %37, %4
  %30 = load ptr, ptr %10, align 8
  %31 = load i32, ptr %11, align 4
  %32 = call noundef nonnull align 8 dereferenceable(8) ptr @_ZN17GrowableArrayViewIP6LIR_OpE2atEi(ptr noundef nonnull align 8 dereferenceable(16) %30, i32 noundef %31)
  %33 = load ptr, ptr %32, align 8
  %34 = call noundef i32 @_ZNK6LIR_Op2idEv(ptr noundef nonnull align 8 dereferenceable(48) %33)
  %35 = load i32, ptr %6, align 4
  %36 = icmp ne i32 %34, %35
  br i1 %36, label %37, label %40

37:                                               ; preds = %29
  %38 = load i32, ptr %11, align 4
  %39 = add nsw i32 %38, 1
  store i32 %39, ptr %11, align 4
  br label %29, !llvm.loop !114

40:                                               ; preds = %29
  %41 = getelementptr inbounds %class.LinearScanWalker, ptr %12, i32 0, i32 8
  %42 = load ptr, ptr %9, align 8
  %43 = call noundef ptr @_ZNK10BlockBegin3lirEv(ptr noundef nonnull align 8 dereferenceable(408) %42)
  %44 = load i32, ptr %11, align 4
  %45 = sub nsw i32 %44, 1
  call void @_ZN12MoveResolver20move_insert_positionEP8LIR_Listi(ptr noundef nonnull align 8 dereferenceable(380) %41, ptr noundef %43, i32 noundef %45)
  %46 = getelementptr inbounds %class.LinearScanWalker, ptr %12, i32 0, i32 8
  %47 = load ptr, ptr %7, align 8
  %48 = load ptr, ptr %8, align 8
  call void @_ZN12MoveResolver11add_mappingEP8IntervalS1_(ptr noundef nonnull align 8 dereferenceable(380) %46, ptr noundef %47, ptr noundef %48)
  ret void
}