; Function Attrs: mustprogress nounwind uwtable
define hidden void @_ZN16LinearScanWalker11insert_moveEiP8IntervalS1_(ptr noundef nonnull align 8 dereferenceable(1384) %0, i32 noundef %1, ptr noundef %2, ptr noundef %3) local_unnamed_addr #0 align 2 {
  %5 = add nsw i32 %1, 1
  %6 = and i32 %5, -2
  %7 = getelementptr inbounds i8, ptr %0, i64 16
  %8 = load ptr, ptr %7, align 8
  %9 = ashr i32 %5, 1
  %10 = getelementptr inbounds i8, ptr %8, i64 160
  %11 = load ptr, ptr %10, align 8
  %12 = sext i32 %9 to i64
  %13 = getelementptr inbounds ptr, ptr %11, i64 %12
  %14 = load ptr, ptr %13, align 8
  %15 = getelementptr inbounds i8, ptr %14, i64 304
  %16 = load ptr, ptr %15, align 8
  %17 = getelementptr inbounds i8, ptr %16, i64 8
  %18 = load ptr, ptr %17, align 8
  %19 = load ptr, ptr %18, align 8
  %20 = getelementptr inbounds i8, ptr %19, i64 32
  %21 = load i32, ptr %20, align 8
  %22 = sub nsw i32 %6, %21
  %23 = sdiv i32 %22, 2
  %24 = sext i32 %23 to i64
  br label %25

25:                                               ; preds = %25, %4
  %indvars.iv = phi i64 [ %indvars.iv.next, %25 ], [ %24, %4 ]
  %26 = getelementptr inbounds ptr, ptr %18, i64 %indvars.iv
  %27 = load ptr, ptr %26, align 8
  %28 = getelementptr inbounds i8, ptr %27, i64 32
  %29 = load i32, ptr %28, align 8
  %.not = icmp eq i32 %29, %6
  %indvars.iv.next = add nsw i64 %indvars.iv, 1
  br i1 %.not, label %30, label %25, !llvm.loop !121

30:                                               ; preds = %25
  %31 = trunc nsw i64 %indvars.iv to i32
  %32 = getelementptr inbounds i8, ptr %0, i64 1000
  %33 = add nsw i32 %31, -1
  %34 = getelementptr inbounds i8, ptr %0, i64 1008
  %35 = load ptr, ptr %34, align 8
  %.not.i = icmp eq ptr %35, null
  br i1 %.not.i, label %40, label %36

36:                                               ; preds = %30
  %.not7.i = icmp eq ptr %35, %16
  %37 = getelementptr inbounds i8, ptr %0, i64 1016
  %38 = load i32, ptr %37, align 8
  %.not8.i = icmp eq i32 %38, %33
  %or.cond.i = select i1 %.not7.i, i1 %.not8.i, i1 false
  br i1 %or.cond.i, label %_ZN12MoveResolver20move_insert_positionEP8LIR_Listi.exit, label %39

39:                                               ; preds = %36
  tail call void @_ZN12MoveResolver16resolve_mappingsEv(ptr noundef nonnull align 8 dereferenceable(380) %32)
  %.pre.i = load ptr, ptr %34, align 8
  br label %40

40:                                               ; preds = %39, %30
  %41 = phi ptr [ %.pre.i, %39 ], [ null, %30 ]
  %.not9.i = icmp eq ptr %41, %16
  br i1 %.not9.i, label %_ZN12MoveResolver20move_insert_positionEP8LIR_Listi.exit, label %42

42:                                               ; preds = %40
  %43 = getelementptr inbounds i8, ptr %0, i64 1024
  %44 = load ptr, ptr %43, align 8
  %.not.i.i = icmp eq ptr %44, null
  br i1 %.not.i.i, label %_ZN12MoveResolver23append_insertion_bufferEv.exit.i, label %45

45:                                               ; preds = %42
  tail call void @_ZN8LIR_List6appendEP19LIR_InsertionBuffer(ptr noundef nonnull align 8 dereferenceable(32) %44, ptr noundef nonnull %43) #22
  br label %_ZN12MoveResolver23append_insertion_bufferEv.exit.i

_ZN12MoveResolver23append_insertion_bufferEv.exit.i: ; preds = %45, %42
  store ptr %16, ptr %43, align 8
  %46 = getelementptr inbounds i8, ptr %0, i64 1032
  store i32 0, ptr %46, align 8
  %47 = getelementptr inbounds i8, ptr %0, i64 1056
  store i32 0, ptr %47, align 8
  br label %_ZN12MoveResolver20move_insert_positionEP8LIR_Listi.exit

_ZN12MoveResolver20move_insert_positionEP8LIR_Listi.exit: ; preds = %36, %40, %_ZN12MoveResolver23append_insertion_bufferEv.exit.i
  store ptr %16, ptr %34, align 8
  %48 = getelementptr inbounds i8, ptr %0, i64 1016
  store i32 %33, ptr %48, align 8
  tail call void @_ZN12MoveResolver11add_mappingEP8IntervalS1_(ptr noundef nonnull align 8 dereferenceable(380) %32, ptr noundef %2, ptr noundef %3)
  ret void
}